target datalayout = "e-m:e-p270:32:32-p271:32:32-p272:64:64-i64:64-i128:128-f80:128-n8:16:32:64-S128"
target triple = "x86_64-pc-linux-gnu"

; Function Attrs: nounwind uwtable
define hidden i32 @_cmsReadCHAD(ptr noundef %0, ptr noundef %1) #0 {
  %3 = alloca i32, align 4
  %4 = alloca ptr, align 8
  %5 = alloca ptr, align 8
  %6 = alloca ptr, align 8
  %7 = alloca ptr, align 8
  store ptr %0, ptr %4, align 8
  store ptr %1, ptr %5, align 8
  %8 = load ptr, ptr %5, align 8
  %9 = call ptr @cmsReadTag(ptr noundef %8, i32 noundef 1667785060)
  store ptr %9, ptr %6, align 8
  %10 = load ptr, ptr %6, align 8
  %11 = icmp ne ptr %10, null
  br i1 %11, label %12, label %15

12:                                               ; preds = %2
  %13 = load ptr, ptr %4, align 8
  %14 = load ptr, ptr %6, align 8
  call void @llvm.memcpy.p0.p0.i64(ptr align 8 %13, ptr align 8 %14, i64 72, i1 false)
  store i32 1, ptr %3, align 4
  br label %38

15:                                               ; preds = %2
  %16 = load ptr, ptr %4, align 8
  call void @_cmsMAT3identity(ptr noundef %16)
  %17 = load ptr, ptr %5, align 8
  %18 = call i32 @cmsGetEncodedICCversion(ptr noundef %17)
  %19 = icmp ult i32 %18, 67108864
  br i1 %19, label %20, label %37

20:                                               ; preds = %15
  %21 = load ptr, ptr %5, align 8
  %22 = call i32 @cmsGetDeviceClass(ptr noundef %21)
  %23 = icmp eq i32 %22, 1835955314
  br i1 %23, label %24, label %36

24:                                               ; preds = %20
  %25 = load ptr, ptr %5, align 8
  %26 = call ptr @cmsReadTag(ptr noundef %25, i32 noundef 2004119668)
  store ptr %26, ptr %7, align 8
  %27 = load ptr, ptr %7, align 8
  %28 = icmp eq ptr %27, null
  br i1 %28, label %29, label %31

29:                                               ; preds = %24
  %30 = load ptr, ptr %4, align 8
  call void @_cmsMAT3identity(ptr noundef %30)
  store i32 1, ptr %3, align 4
  br label %38

31:                                               ; preds = %24
  %32 = load ptr, ptr %4, align 8
  %33 = load ptr, ptr %7, align 8
  %34 = call ptr @cmsD50_XYZ()
  %35 = call i32 @_cmsAdaptationMatrix(ptr noundef %32, ptr noundef null, ptr noundef %33, ptr noundef %34)
  store i32 %35, ptr %3, align 4
  br label %38

36:                                               ; preds = %20
  br label %37

37:                                               ; preds = %36, %15
  store i32 1, ptr %3, align 4
  br label %38

38:                                               ; preds = %37, %31, %29, %12
  %39 = load i32, ptr %3, align 4
  ret i32 %39
}