; Function Attrs: nounwind uwtable
define hidden i32 @_cmsReadCHAD(ptr noundef %0, ptr noundef %1) local_unnamed_addr #0 {
  %3 = tail call ptr @cmsReadTag(ptr noundef %1, i32 noundef 1667785060) #4
  %.not = icmp eq ptr %3, null
  br i1 %.not, label %5, label %4

4:                                                ; preds = %2
  tail call void @llvm.memcpy.p0.p0.i64(ptr noundef nonnull align 8 dereferenceable(72) %0, ptr noundef nonnull align 8 dereferenceable(72) %3, i64 72, i1 false)
  br label %18

5:                                                ; preds = %2
  tail call void @_cmsMAT3identity(ptr noundef %0) #4
  %6 = tail call i32 @cmsGetEncodedICCversion(ptr noundef %1) #4
  %7 = icmp ult i32 %6, 67108864
  br i1 %7, label %8, label %18

8:                                                ; preds = %5
  %9 = tail call i32 @cmsGetDeviceClass(ptr noundef %1) #4
  %10 = icmp eq i32 %9, 1835955314
  br i1 %10, label %11, label %18

11:                                               ; preds = %8
  %12 = tail call ptr @cmsReadTag(ptr noundef %1, i32 noundef 2004119668) #4
  %13 = icmp eq ptr %12, null
  br i1 %13, label %14, label %15

14:                                               ; preds = %11
  tail call void @_cmsMAT3identity(ptr noundef %0) #4
  br label %18

15:                                               ; preds = %11
  %16 = tail call ptr @cmsD50_XYZ() #4
  %17 = tail call i32 @_cmsAdaptationMatrix(ptr noundef %0, ptr noundef null, ptr noundef nonnull %12, ptr noundef %16) #4
  br label %18

18:                                               ; preds = %5, %8, %15, %14, %4
  %.0 = phi i32 [ 1, %4 ], [ 1, %14 ], [ %17, %15 ], [ 1, %8 ], [ 1, %5 ]
  ret i32 %.0
}